; Function Attrs: mustprogress nounwind uwtable
define hidden void @_ZN18AbstractDumpWriter9write_rawEPKvm(ptr noundef nonnull align 8 dereferenceable(34) %0, ptr nocapture noundef readonly %1, i64 noundef %2) unnamed_addr #3 align 2 {
  %4 = getelementptr inbounds i8, ptr %0, i64 16
  %5 = getelementptr inbounds i8, ptr %0, i64 24
  %6 = load i64, ptr %4, align 8
  %7 = load i64, ptr %5, align 8
  %8 = sub i64 %6, %7
  %9 = icmp ult i64 %8, %2
  br i1 %9, label %.lr.ph, label %._crit_edge

.lr.ph:                                           ; preds = %3
  %10 = getelementptr inbounds i8, ptr %0, i64 8
  br label %11

11:                                               ; preds = %.lr.ph, %11
  %12 = phi i64 [ %8, %.lr.ph ], [ %25, %11 ]
  %13 = phi i64 [ %7, %.lr.ph ], [ %24, %11 ]
  %.014 = phi ptr [ %1, %.lr.ph ], [ %16, %11 ]
  %.01113 = phi i64 [ %2, %.lr.ph ], [ %17, %11 ]
  %14 = load ptr, ptr %10, align 8
  %15 = getelementptr inbounds i8, ptr %14, i64 %13
  tail call void @llvm.memcpy.p0.p0.i64(ptr align 1 %15, ptr align 1 %.014, i64 %12, i1 false)
  %16 = getelementptr inbounds i8, ptr %.014, i64 %12
  %17 = sub i64 %.01113, %12
  %18 = load i64, ptr %5, align 8
  %19 = add i64 %18, %12
  store i64 %19, ptr %5, align 8
  %20 = load ptr, ptr %0, align 8
  %21 = getelementptr inbounds i8, ptr %20, i64 24
  %22 = load ptr, ptr %21, align 8
  tail call void %22(ptr noundef nonnull align 8 dereferenceable(34) %0) #19
  %23 = load i64, ptr %4, align 8
  %24 = load i64, ptr %5, align 8
  %25 = sub i64 %23, %24
  %26 = icmp ugt i64 %17, %25
  br i1 %26, label %11, label %._crit_edge, !llvm.loop !6

._crit_edge:                                      ; preds = %11, %3
  %.011.lcssa = phi i64 [ %2, %3 ], [ %17, %11 ]
  %.0.lcssa = phi ptr [ %1, %3 ], [ %16, %11 ]
  %.lcssa = phi i64 [ %7, %3 ], [ %24, %11 ]
  %27 = getelementptr inbounds i8, ptr %0, i64 8
  %28 = load ptr, ptr %27, align 8
  %29 = getelementptr inbounds i8, ptr %28, i64 %.lcssa
  tail call void @llvm.memcpy.p0.p0.i64(ptr align 1 %29, ptr align 1 %.0.lcssa, i64 %.011.lcssa, i1 false)
  %30 = load i64, ptr %5, align 8
  %31 = add i64 %30, %.011.lcssa
  store i64 %31, ptr %5, align 8
  ret void
}